ccopy_reg
_reconstructor
p0
(cGameEngine.screen
GameScreen
p1
c__builtin__
object
p2
Ntp3
Rp4
(dp5
S'resourceManager'
p6
(iGameEngine.gamehelpers
ResourceManager
p7
(dp8
S'texturesPaths'
p9
(lp10
S'../GameEngine/textures/object.jpg'
p11
aS'../GameEngine/textures/gameObjectDefault.png'
p12
aS'../GameEngine/textures/basicMovingCreature/hbs1.png'
p13
aS'../GameEngine/textures/basicMovingCreature/hbs2.png'
p14
aS'../GameEngine/textures/basicMovingCreature/hfs1.png'
p15
aS'../GameEngine/textures/basicMovingCreature/hfs2.png'
p16
aS'../GameEngine/textures/basicMovingCreature/hs2s.png'
p17
aS'../GameEngine/textures/basicMovingCreature/hs2s1.png'
p18
aS'../GameEngine/textures/basicMovingCreature/hss.png'
p19
aS'../GameEngine/textures/basicMovingCreature/hss1.png'
p20
aS'../GameEngine/textures/basicMovingCreature/hs2s.png'
p21
aS'../GameEngine/textures/basicMovingCreature/hs2s1.png'
p22
aS'../GameEngine/textures/basicMovingCreature/hss.png'
p23
aS'../GameEngine/textures/basicMovingCreature/hss1.png'
p24
aS'../GameEngine/textures/basicMovingCreature/hs2s.png'
p25
aS'../GameEngine/textures/basicMovingCreature/hs2s1.png'
p26
aS'../GameEngine/textures/basicMovingCreature/hss.png'
p27
aS'../GameEngine/textures/basicMovingCreature/hss1.png'
p28
aS'../GameEngine/textures/basicMovingCreature/hbs.png'
p29
aS'../GameEngine/textures/basicRotatingCreature/stop/rot_001.png'
p30
aS'../GameEngine/textures/basicRotatingCreature/stop/rot_001.png'
p31
aS'../GameEngine/textures/basicRotatingCreature/stop/rot_002.png'
p32
aS'../GameEngine/textures/basicRotatingCreature/stop/rot_003.png'
p33
aS'../GameEngine/textures/basicRotatingCreature/stop/rot_004.png'
p34
aS'../GameEngine/textures/basicRotatingCreature/stop/rot_005.png'
p35
aS'../GameEngine/textures/basicRotatingCreature/stop/rot_006.png'
p36
aS'../GameEngine/textures/basicRotatingCreature/stop/rot_007.png'
p37
aS'../GameEngine/textures/basicRotatingCreature/stop/rot_008.png'
p38
aS'../GameEngine/textures/basicRotatingCreature/stop/rot_009.png'
p39
aS'../GameEngine/textures/basicRotatingCreature/stop/rot_010.png'
p40
aS'../GameEngine/textures/basicRotatingCreature/stop/rot_011.png'
p41
aS'../GameEngine/textures/basicRotatingCreature/stop/rot_012.png'
p42
aS'../GameEngine/textures/basicRotatingCreature/stop/rot_013.png'
p43
aS'../GameEngine/textures/basicRotatingCreature/stop/rot_014.png'
p44
aS'../GameEngine/textures/basicRotatingCreature/stop/rot_015.png'
p45
aS'../GameEngine/textures/basicRotatingCreature/stop/rot_016.png'
p46
aS'../GameEngine/textures/basicRotatingCreature/stop/rot_017.png'
p47
aS'../GameEngine/textures/basicRotatingCreature/stop/rot_018.png'
p48
aS'../GameEngine/textures/basicRotatingCreature/stop/rot_019.png'
p49
aS'../GameEngine/textures/basicRotatingCreature/stop/rot_020.png'
p50
aS'../GameEngine/textures/basicRotatingCreature/stop/rot_021.png'
p51
aS'../GameEngine/textures/basicRotatingCreature/stop/rot_022.png'
p52
aS'../GameEngine/textures/basicRotatingCreature/stop/rot_023.png'
p53
aS'../GameEngine/textures/basicRotatingCreature/stop/rot_024.png'
p54
aS'../GameEngine/textures/basicRotatingCreature/stop/rot_025.png'
p55
aS'../GameEngine/textures/basicRotatingCreature/stop/rot_026.png'
p56
aS'../GameEngine/textures/basicRotatingCreature/stop/rot_027.png'
p57
aS'../GameEngine/textures/basicRotatingCreature/stop/rot_028.png'
p58
aS'../GameEngine/textures/basicRotatingCreature/stop/rot_029.png'
p59
aS'../GameEngine/textures/basicRotatingCreature/stop/rot_030.png'
p60
aS'../GameEngine/textures/basicRotatingCreature/stop/rot_031.png'
p61
aS'../GameEngine/textures/basicRotatingCreature/stop/rot_032.png'
p62
aS'../GameEngine/textures/basicRotatingCreature/stop/rot_033.png'
p63
aS'../GameEngine/textures/basicRotatingCreature/stop/rot_034.png'
p64
aS'../GameEngine/textures/basicRotatingCreature/stop/rot_035.png'
p65
aS'../GameEngine/textures/basicRotatingCreature/stop/rot_036.png'
p66
aS'../GameEngine/textures/basicRotatingCreature/stop/rot_037.png'
p67
aS'../GameEngine/textures/basicRotatingCreature/stop/rot_038.png'
p68
aS'../GameEngine/textures/basicRotatingCreature/stop/rot_039.png'
p69
aS'../GameEngine/textures/basicRotatingCreature/stop/rot_040.png'
p70
aS'../GameEngine/textures/basicRotatingCreature/stop/rot_041.png'
p71
aS'../GameEngine/textures/basicRotatingCreature/stop/rot_042.png'
p72
aS'../GameEngine/textures/basicRotatingCreature/stop/rot_043.png'
p73
aS'../GameEngine/textures/basicRotatingCreature/stop/rot_044.png'
p74
aS'../GameEngine/textures/basicRotatingCreature/stop/rot_045.png'
p75
aS'../GameEngine/textures/basicRotatingCreature/stop/rot_046.png'
p76
aS'../GameEngine/textures/basicRotatingCreature/stop/rot_047.png'
p77
aS'../GameEngine/textures/basicRotatingCreature/stop/rot_048.png'
p78
aS'../GameEngine/textures/basicRotatingCreature/stop/rot_049.png'
p79
aS'../GameEngine/textures/basicRotatingCreature/stop/rot_050.png'
p80
aS'../GameEngine/textures/basicRotatingCreature/stop/rot_051.png'
p81
aS'../GameEngine/textures/basicRotatingCreature/stop/rot_052.png'
p82
aS'../GameEngine/textures/basicRotatingCreature/stop/rot_053.png'
p83
aS'../GameEngine/textures/basicRotatingCreature/stop/rot_054.png'
p84
aS'../GameEngine/textures/basicRotatingCreature/stop/rot_055.png'
p85
aS'../GameEngine/textures/basicRotatingCreature/stop/rot_056.png'
p86
aS'../GameEngine/textures/basicRotatingCreature/stop/rot_057.png'
p87
aS'../GameEngine/textures/basicRotatingCreature/stop/rot_058.png'
p88
aS'../GameEngine/textures/basicRotatingCreature/stop/rot_059.png'
p89
aS'../GameEngine/textures/basicRotatingCreature/stop/rot_060.png'
p90
aS'../GameEngine/textures/basicRotatingCreature/stop/rot_061.png'
p91
aS'../GameEngine/textures/basicRotatingCreature/stop/rot_062.png'
p92
aS'../GameEngine/textures/basicRotatingCreature/stop/rot_063.png'
p93
aS'../GameEngine/textures/basicRotatingCreature/stop/rot_064.png'
p94
aS'../GameEngine/textures/basicRotatingCreature/stop/rot_065.png'
p95
aS'../GameEngine/textures/basicRotatingCreature/stop/rot_066.png'
p96
aS'../GameEngine/textures/basicRotatingCreature/stop/rot_067.png'
p97
aS'../GameEngine/textures/basicRotatingCreature/stop/rot_068.png'
p98
aS'../GameEngine/textures/basicRotatingCreature/stop/rot_069.png'
p99
aS'../GameEngine/textures/basicRotatingCreature/stop/rot_070.png'
p100
aS'../GameEngine/textures/basicRotatingCreature/stop/rot_071.png'
p101
aS'../GameEngine/textures/basicRotatingCreature/stop/rot_072.png'
p102
aS'../GameEngine/textures/basicRotatingCreature/stop/rot_073.png'
p103
aS'../GameEngine/textures/basicRotatingCreature/stop/rot_074.png'
p104
aS'../GameEngine/textures/basicRotatingCreature/stop/rot_075.png'
p105
aS'../GameEngine/textures/basicRotatingCreature/stop/rot_076.png'
p106
aS'../GameEngine/textures/basicRotatingCreature/stop/rot_077.png'
p107
aS'../GameEngine/textures/basicRotatingCreature/stop/rot_078.png'
p108
aS'../GameEngine/textures/basicRotatingCreature/stop/rot_079.png'
p109
aS'../GameEngine/textures/basicRotatingCreature/stop/rot_080.png'
p110
aS'../GameEngine/textures/basicRotatingCreature/stop/rot_081.png'
p111
aS'../GameEngine/textures/basicRotatingCreature/stop/rot_082.png'
p112
aS'../GameEngine/textures/basicRotatingCreature/stop/rot_083.png'
p113
aS'../GameEngine/textures/basicRotatingCreature/stop/rot_084.png'
p114
aS'../GameEngine/textures/basicRotatingCreature/stop/rot_085.png'
p115
aS'../GameEngine/textures/basicRotatingCreature/stop/rot_086.png'
p116
aS'../GameEngine/textures/basicRotatingCreature/stop/rot_087.png'
p117
aS'../GameEngine/textures/basicRotatingCreature/stop/rot_088.png'
p118
aS'../GameEngine/textures/basicRotatingCreature/stop/rot_089.png'
p119
aS'../GameEngine/textures/basicRotatingCreature/stop/rot_090.png'
p120
aS'../GameEngine/textures/basicRotatingCreature/stop/rot_091.png'
p121
aS'../GameEngine/textures/basicRotatingCreature/stop/rot_092.png'
p122
aS'../GameEngine/textures/basicRotatingCreature/stop/rot_093.png'
p123
aS'../GameEngine/textures/basicRotatingCreature/stop/rot_094.png'
p124
aS'../GameEngine/textures/basicRotatingCreature/stop/rot_095.png'
p125
aS'../GameEngine/textures/basicRotatingCreature/stop/rot_096.png'
p126
aS'../GameEngine/textures/basicRotatingCreature/stop/rot_097.png'
p127
aS'../GameEngine/textures/basicRotatingCreature/stop/rot_098.png'
p128
aS'../GameEngine/textures/basicRotatingCreature/stop/rot_099.png'
p129
aS'../GameEngine/textures/basicRotatingCreature/stop/rot_100.png'
p130
aS'../GameEngine/textures/basicRotatingCreature/stop/rot_101.png'
p131
aS'../GameEngine/textures/basicRotatingCreature/stop/rot_102.png'
p132
aS'../GameEngine/textures/basicRotatingCreature/stop/rot_103.png'
p133
aS'../GameEngine/textures/basicRotatingCreature/stop/rot_104.png'
p134
aS'../GameEngine/textures/basicRotatingCreature/stop/rot_105.png'
p135
aS'../GameEngine/textures/basicRotatingCreature/stop/rot_106.png'
p136
aS'../GameEngine/textures/basicRotatingCreature/stop/rot_107.png'
p137
aS'../GameEngine/textures/basicRotatingCreature/stop/rot_108.png'
p138
aS'../GameEngine/textures/basicRotatingCreature/stop/rot_109.png'
p139
aS'../GameEngine/textures/basicRotatingCreature/stop/rot_110.png'
p140
aS'../GameEngine/textures/basicRotatingCreature/stop/rot_111.png'
p141
aS'../GameEngine/textures/basicRotatingCreature/stop/rot_112.png'
p142
aS'../GameEngine/textures/basicRotatingCreature/stop/rot_113.png'
p143
aS'../GameEngine/textures/basicRotatingCreature/stop/rot_114.png'
p144
aS'../GameEngine/textures/basicRotatingCreature/stop/rot_115.png'
p145
aS'../GameEngine/textures/basicRotatingCreature/stop/rot_116.png'
p146
aS'../GameEngine/textures/basicRotatingCreature/stop/rot_117.png'
p147
aS'../GameEngine/textures/basicRotatingCreature/stop/rot_118.png'
p148
aS'../GameEngine/textures/basicRotatingCreature/stop/rot_119.png'
p149
aS'../GameEngine/textures/basicRotatingCreature/stop/rot_120.png'
p150
asS'tPid'
p151
I140
sS'textureSurfaces'
p152
(lp153
sS'soundsPaths'
p154
(lp155
S'../GameEngine/sounds/basicMovingCreature/step.wav'
p156
asS'sPid'
p157
I1
sS'sounds'
p158
(lp159
sbsS'backgroundRect'
p160
NsS'drawables'
p161
(dp162
sS'surface'
p163
NsS'height'
p164
I400
sS'width'
p165
I400
sS'background'
p166
NsS'passiveObjects'
p167
(dp168
sS'opts'
p169
I0
sS'activeObjects'
p170
(dp171
I0
g0
(cGameEngine.gameobjects
ExtendedDrawable
p172
g2
Ntp173
Rp174
(dp175
S'UID'
p176
I0
sS'sourceID'
p177
I0
sS'screen'
p178
g4
sS'source'
p179
NsS'graphicPosY'
p180
I200
sS'graphicPosX'
p181
I200
sS'_BasicDrawable__posY'
p182
I200
sS'_BasicDrawable__posX'
p183
I200
sS'destRect'
p184
NsbsI2
g0
(cGameEngine.basiccreatures
BasicMovingCharacter
p185
g2
Ntp186
Rp187
(dp188
S'maxWidth'
p189
I13
sS'currAngle'
p190
F0.0
sS'stepsSinceAnimRefresh'
p191
I0
sS'soundDelay'
p192
I50
sS'stepsSinceSoundRefresh'
p193
I0
sg158
(dp194
sS'texturesIDs'
p195
(dp196
(S'MOVE_ACTION'
p197
S'UP_LEFT'
p198
tp199
(lp200
I10
aI11
as(g197
S'DOWN'
p201
tp202
(lp203
I4
aI5
as(S'STOP_ACTION'
p204
S'FRONT'
p205
tp206
(lp207
I18
as(g197
S'DOWN_RIGHT'
p208
tp209
(lp210
I16
aI17
as(g197
S'UP_RIGHT'
p211
tp212
(lp213
I12
aI13
as(g197
S'UP'
p214
tp215
(lp216
I2
aI3
as(g197
S'RIGHT'
p217
tp218
(lp219
I8
aI9
as(g197
S'DOWN_LEFT'
p220
tp221
(lp222
I14
aI15
as(g197
S'LEFT'
p223
tp224
(lp225
I6
aI7
assg184
NsS'lastTexture'
p226
Nsg176
I2
sS'steering'
p227
(dp228
g201
I115
sg217
I100
sg214
I119
sg223
I97
ssg179
NsS'animationDelay'
p229
I50
sS'collisionGroups'
p230
NsS'textures'
p231
(dp232
sS'soundsIDs'
p233
(dp234
(g197
S'DEFAULT_ACTION'
p235
tp236
(lp237
I0
assS'nextActionsI'
p238
(lp239
sg177
I1
sg178
g4
sS'actions'
p240
(dp241
g204
g0
(cGameEngine.basiccreatures
BasicMovingCharacter_StopAction
p242
g2
Ntp243
Rp244
(dp245
S'additionalInfo'
p246
NsS'actionObject'
p247
Nsbsg197
g0
(cGameEngine.basiccreatures
BasicMovingCharacter_MoveAction
p248
g2
Ntp249
Rp250
(dp251
g246
Nsg247
Nsbssg182
I200
sg183
I200
sS'additionalAttributes'
p252
(dp253
sS'lastSound'
p254
NsS'maxHeight'
p255
I49
sS'moveSpeeds'
p256
(dp257
g201
F0.5
sg217
F0.5
sg214
F0.5
sg223
F0.5
ssg180
I200
sg181
I200
sS'posX'
p258
I200
sS'posY'
p259
I200
sS'previousActionsI'
p260
(lp261
sbsI4
g0
(cGameEngine.basiccreatures
BasicRotatingCharacter
p262
g2
Ntp263
Rp264
(dp265
g189
I43
sg190
F0.0
sg191
I0
sg192
I0
sg193
I0
sg158
(dp266
sg195
(dp267
(S'ROTATE_STOP_ACTION'
p268
g235
tp269
(lp270
I20
aI21
aI22
aI23
aI24
aI25
aI26
aI27
aI28
aI29
aI30
aI31
aI32
aI33
aI34
aI35
aI36
aI37
aI38
aI39
aI40
aI41
aI42
aI43
aI44
aI45
aI46
aI47
aI48
aI49
aI50
aI51
aI52
aI53
aI54
aI55
aI56
aI57
aI58
aI59
aI60
aI61
aI62
aI63
aI64
aI65
aI66
aI67
aI68
aI69
aI70
aI71
aI72
aI73
aI74
aI75
aI76
aI77
aI78
aI79
aI80
aI81
aI82
aI83
aI84
aI85
aI86
aI87
aI88
aI89
aI90
aI91
aI92
aI93
aI94
aI95
aI96
aI97
aI98
aI99
aI100
aI101
aI102
aI103
aI104
aI105
aI106
aI107
aI108
aI109
aI110
aI111
aI112
aI113
aI114
aI115
aI116
aI117
aI118
aI119
aI120
aI121
aI122
aI123
aI124
aI125
aI126
aI127
aI128
aI129
aI130
aI131
aI132
aI133
aI134
aI135
aI136
aI137
aI138
aI139
assg184
Nsg226
Nsg176
I4
sg227
(dp271
S'FORWARD'
p272
I273
sg217
I275
sS'BACKWARD'
p273
I274
sg223
I276
ssg179
Nsg229
I0
sg230
(dp274
S'all'
p275
(lp276
(I11
I7
tp277
a(I29
I6
tp278
a(I35
I26
tp279
a(I21
I40
tp280
a(I7
I26
tp281
assS'rotationSpeeds'
p282
(dp283
g217
F1.0
sg223
F1.0
ssg231
(dp284
sg233
(dp285
sg238
(lp286
sg177
I19
sg178
g4
sg240
(dp287
g268
g0
(cGameEngine.basiccreatures
BasicRotatingCharacter_RotateStopAction
p288
g2
Ntp289
Rp290
(dp291
g246
Nsg247
Nsbsg197
g0
(cGameEngine.basiccreatures
BasicRotatingCharacter_MoveAction
p292
g2
Ntp293
Rp294
(dp295
g246
Nsg247
Nsbssg182
I200
sg183
I200
sg252
(dp296
sg254
Nsg255
I43
sg256
(dp297
g272
F1.0
sg273
F1.0
ssg180
I200
sg181
I200
sg258
I200
sg259
I200
sg260
(lp298
sbssb.