(iGameEngine.helpers
ResourceManager
p0
(dp1
S'texturesPaths'
p2
(lp3
S'../GameEngine/textures/object.jpg'
p4
aS'../GameEngine/textures/gameObjectDefault.png'
p5
aS'../GameEngine/textures/basicMovingCreature/hbs1.png'
p6
aS'../GameEngine/textures/basicMovingCreature/hbs2.png'
p7
aS'../GameEngine/textures/basicMovingCreature/hfs1.png'
p8
aS'../GameEngine/textures/basicMovingCreature/hfs2.png'
p9
aS'../GameEngine/textures/basicMovingCreature/hs2s.png'
p10
aS'../GameEngine/textures/basicMovingCreature/hs2s1.png'
p11
aS'../GameEngine/textures/basicMovingCreature/hss.png'
p12
aS'../GameEngine/textures/basicMovingCreature/hss1.png'
p13
aS'../GameEngine/textures/basicMovingCreature/hs2s.png'
p14
aS'../GameEngine/textures/basicMovingCreature/hs2s1.png'
p15
aS'../GameEngine/textures/basicMovingCreature/hss.png'
p16
aS'../GameEngine/textures/basicMovingCreature/hss1.png'
p17
aS'../GameEngine/textures/basicMovingCreature/hs2s.png'
p18
aS'../GameEngine/textures/basicMovingCreature/hs2s1.png'
p19
aS'../GameEngine/textures/basicMovingCreature/hss.png'
p20
aS'../GameEngine/textures/basicMovingCreature/hss1.png'
p21
aS'../GameEngine/textures/basicMovingCreature/hbs.png'
p22
aS'../GameEngine/textures/basicRotatingCreature/stop/rot_001.png'
p23
aS'../GameEngine/textures/basicRotatingCreature/stop/rot_001.png'
p24
aS'../GameEngine/textures/basicRotatingCreature/stop/rot_002.png'
p25
aS'../GameEngine/textures/basicRotatingCreature/stop/rot_003.png'
p26
aS'../GameEngine/textures/basicRotatingCreature/stop/rot_004.png'
p27
aS'../GameEngine/textures/basicRotatingCreature/stop/rot_005.png'
p28
aS'../GameEngine/textures/basicRotatingCreature/stop/rot_006.png'
p29
aS'../GameEngine/textures/basicRotatingCreature/stop/rot_007.png'
p30
aS'../GameEngine/textures/basicRotatingCreature/stop/rot_008.png'
p31
aS'../GameEngine/textures/basicRotatingCreature/stop/rot_009.png'
p32
aS'../GameEngine/textures/basicRotatingCreature/stop/rot_010.png'
p33
aS'../GameEngine/textures/basicRotatingCreature/stop/rot_011.png'
p34
aS'../GameEngine/textures/basicRotatingCreature/stop/rot_012.png'
p35
aS'../GameEngine/textures/basicRotatingCreature/stop/rot_013.png'
p36
aS'../GameEngine/textures/basicRotatingCreature/stop/rot_014.png'
p37
aS'../GameEngine/textures/basicRotatingCreature/stop/rot_015.png'
p38
aS'../GameEngine/textures/basicRotatingCreature/stop/rot_016.png'
p39
aS'../GameEngine/textures/basicRotatingCreature/stop/rot_017.png'
p40
aS'../GameEngine/textures/basicRotatingCreature/stop/rot_018.png'
p41
aS'../GameEngine/textures/basicRotatingCreature/stop/rot_019.png'
p42
aS'../GameEngine/textures/basicRotatingCreature/stop/rot_020.png'
p43
aS'../GameEngine/textures/basicRotatingCreature/stop/rot_021.png'
p44
aS'../GameEngine/textures/basicRotatingCreature/stop/rot_022.png'
p45
aS'../GameEngine/textures/basicRotatingCreature/stop/rot_023.png'
p46
aS'../GameEngine/textures/basicRotatingCreature/stop/rot_024.png'
p47
aS'../GameEngine/textures/basicRotatingCreature/stop/rot_025.png'
p48
aS'../GameEngine/textures/basicRotatingCreature/stop/rot_026.png'
p49
aS'../GameEngine/textures/basicRotatingCreature/stop/rot_027.png'
p50
aS'../GameEngine/textures/basicRotatingCreature/stop/rot_028.png'
p51
aS'../GameEngine/textures/basicRotatingCreature/stop/rot_029.png'
p52
aS'../GameEngine/textures/basicRotatingCreature/stop/rot_030.png'
p53
aS'../GameEngine/textures/basicRotatingCreature/stop/rot_031.png'
p54
aS'../GameEngine/textures/basicRotatingCreature/stop/rot_032.png'
p55
aS'../GameEngine/textures/basicRotatingCreature/stop/rot_033.png'
p56
aS'../GameEngine/textures/basicRotatingCreature/stop/rot_034.png'
p57
aS'../GameEngine/textures/basicRotatingCreature/stop/rot_035.png'
p58
aS'../GameEngine/textures/basicRotatingCreature/stop/rot_036.png'
p59
aS'../GameEngine/textures/basicRotatingCreature/stop/rot_037.png'
p60
aS'../GameEngine/textures/basicRotatingCreature/stop/rot_038.png'
p61
aS'../GameEngine/textures/basicRotatingCreature/stop/rot_039.png'
p62
aS'../GameEngine/textures/basicRotatingCreature/stop/rot_040.png'
p63
aS'../GameEngine/textures/basicRotatingCreature/stop/rot_041.png'
p64
aS'../GameEngine/textures/basicRotatingCreature/stop/rot_042.png'
p65
aS'../GameEngine/textures/basicRotatingCreature/stop/rot_043.png'
p66
aS'../GameEngine/textures/basicRotatingCreature/stop/rot_044.png'
p67
aS'../GameEngine/textures/basicRotatingCreature/stop/rot_045.png'
p68
aS'../GameEngine/textures/basicRotatingCreature/stop/rot_046.png'
p69
aS'../GameEngine/textures/basicRotatingCreature/stop/rot_047.png'
p70
aS'../GameEngine/textures/basicRotatingCreature/stop/rot_048.png'
p71
aS'../GameEngine/textures/basicRotatingCreature/stop/rot_049.png'
p72
aS'../GameEngine/textures/basicRotatingCreature/stop/rot_050.png'
p73
aS'../GameEngine/textures/basicRotatingCreature/stop/rot_051.png'
p74
aS'../GameEngine/textures/basicRotatingCreature/stop/rot_052.png'
p75
aS'../GameEngine/textures/basicRotatingCreature/stop/rot_053.png'
p76
aS'../GameEngine/textures/basicRotatingCreature/stop/rot_054.png'
p77
aS'../GameEngine/textures/basicRotatingCreature/stop/rot_055.png'
p78
aS'../GameEngine/textures/basicRotatingCreature/stop/rot_056.png'
p79
aS'../GameEngine/textures/basicRotatingCreature/stop/rot_057.png'
p80
aS'../GameEngine/textures/basicRotatingCreature/stop/rot_058.png'
p81
aS'../GameEngine/textures/basicRotatingCreature/stop/rot_059.png'
p82
aS'../GameEngine/textures/basicRotatingCreature/stop/rot_060.png'
p83
aS'../GameEngine/textures/basicRotatingCreature/stop/rot_061.png'
p84
aS'../GameEngine/textures/basicRotatingCreature/stop/rot_062.png'
p85
aS'../GameEngine/textures/basicRotatingCreature/stop/rot_063.png'
p86
aS'../GameEngine/textures/basicRotatingCreature/stop/rot_064.png'
p87
aS'../GameEngine/textures/basicRotatingCreature/stop/rot_065.png'
p88
aS'../GameEngine/textures/basicRotatingCreature/stop/rot_066.png'
p89
aS'../GameEngine/textures/basicRotatingCreature/stop/rot_067.png'
p90
aS'../GameEngine/textures/basicRotatingCreature/stop/rot_068.png'
p91
aS'../GameEngine/textures/basicRotatingCreature/stop/rot_069.png'
p92
aS'../GameEngine/textures/basicRotatingCreature/stop/rot_070.png'
p93
aS'../GameEngine/textures/basicRotatingCreature/stop/rot_071.png'
p94
aS'../GameEngine/textures/basicRotatingCreature/stop/rot_072.png'
p95
aS'../GameEngine/textures/basicRotatingCreature/stop/rot_073.png'
p96
aS'../GameEngine/textures/basicRotatingCreature/stop/rot_074.png'
p97
aS'../GameEngine/textures/basicRotatingCreature/stop/rot_075.png'
p98
aS'../GameEngine/textures/basicRotatingCreature/stop/rot_076.png'
p99
aS'../GameEngine/textures/basicRotatingCreature/stop/rot_077.png'
p100
aS'../GameEngine/textures/basicRotatingCreature/stop/rot_078.png'
p101
aS'../GameEngine/textures/basicRotatingCreature/stop/rot_079.png'
p102
aS'../GameEngine/textures/basicRotatingCreature/stop/rot_080.png'
p103
aS'../GameEngine/textures/basicRotatingCreature/stop/rot_081.png'
p104
aS'../GameEngine/textures/basicRotatingCreature/stop/rot_082.png'
p105
aS'../GameEngine/textures/basicRotatingCreature/stop/rot_083.png'
p106
aS'../GameEngine/textures/basicRotatingCreature/stop/rot_084.png'
p107
aS'../GameEngine/textures/basicRotatingCreature/stop/rot_085.png'
p108
aS'../GameEngine/textures/basicRotatingCreature/stop/rot_086.png'
p109
aS'../GameEngine/textures/basicRotatingCreature/stop/rot_087.png'
p110
aS'../GameEngine/textures/basicRotatingCreature/stop/rot_088.png'
p111
aS'../GameEngine/textures/basicRotatingCreature/stop/rot_089.png'
p112
aS'../GameEngine/textures/basicRotatingCreature/stop/rot_090.png'
p113
aS'../GameEngine/textures/basicRotatingCreature/stop/rot_091.png'
p114
aS'../GameEngine/textures/basicRotatingCreature/stop/rot_092.png'
p115
aS'../GameEngine/textures/basicRotatingCreature/stop/rot_093.png'
p116
aS'../GameEngine/textures/basicRotatingCreature/stop/rot_094.png'
p117
aS'../GameEngine/textures/basicRotatingCreature/stop/rot_095.png'
p118
aS'../GameEngine/textures/basicRotatingCreature/stop/rot_096.png'
p119
aS'../GameEngine/textures/basicRotatingCreature/stop/rot_097.png'
p120
aS'../GameEngine/textures/basicRotatingCreature/stop/rot_098.png'
p121
aS'../GameEngine/textures/basicRotatingCreature/stop/rot_099.png'
p122
aS'../GameEngine/textures/basicRotatingCreature/stop/rot_100.png'
p123
aS'../GameEngine/textures/basicRotatingCreature/stop/rot_101.png'
p124
aS'../GameEngine/textures/basicRotatingCreature/stop/rot_102.png'
p125
aS'../GameEngine/textures/basicRotatingCreature/stop/rot_103.png'
p126
aS'../GameEngine/textures/basicRotatingCreature/stop/rot_104.png'
p127
aS'../GameEngine/textures/basicRotatingCreature/stop/rot_105.png'
p128
aS'../GameEngine/textures/basicRotatingCreature/stop/rot_106.png'
p129
aS'../GameEngine/textures/basicRotatingCreature/stop/rot_107.png'
p130
aS'../GameEngine/textures/basicRotatingCreature/stop/rot_108.png'
p131
aS'../GameEngine/textures/basicRotatingCreature/stop/rot_109.png'
p132
aS'../GameEngine/textures/basicRotatingCreature/stop/rot_110.png'
p133
aS'../GameEngine/textures/basicRotatingCreature/stop/rot_111.png'
p134
aS'../GameEngine/textures/basicRotatingCreature/stop/rot_112.png'
p135
aS'../GameEngine/textures/basicRotatingCreature/stop/rot_113.png'
p136
aS'../GameEngine/textures/basicRotatingCreature/stop/rot_114.png'
p137
aS'../GameEngine/textures/basicRotatingCreature/stop/rot_115.png'
p138
aS'../GameEngine/textures/basicRotatingCreature/stop/rot_116.png'
p139
aS'../GameEngine/textures/basicRotatingCreature/stop/rot_117.png'
p140
aS'../GameEngine/textures/basicRotatingCreature/stop/rot_118.png'
p141
aS'../GameEngine/textures/basicRotatingCreature/stop/rot_119.png'
p142
aS'../GameEngine/textures/basicRotatingCreature/stop/rot_120.png'
p143
asS'tPid'
p144
I140
sS'textureSurfaces'
p145
(lp146
sS'soundsPaths'
p147
(lp148
S'../GameEngine/sounds/basicMovingCreature/step.wav'
p149
asS'sPid'
p150
I1
sS'sounds'
p151
(lp152
sb.