(iGameEngine.helpers
ResourceManager
p0
(dp1
S'texturesPaths'
p2
(lp3
S'../GameEngine/textures/object.jpg'
p4
aS'../GameEngine/textures/gameObjectDefault.png'
p5
aS'../GameEngine/textures/basicMovingCreature/hbs1.png'
p6
aS'../GameEngine/textures/basicMovingCreature/hbs2.png'
p7
aS'../GameEngine/textures/basicMovingCreature/hfs1.png'
p8
aS'../GameEngine/textures/basicMovingCreature/hfs2.png'
p9
aS'../GameEngine/textures/basicMovingCreature/hs2s.png'
p10
aS'../GameEngine/textures/basicMovingCreature/hs2s1.png'
p11
aS'../GameEngine/textures/basicMovingCreature/hss.png'
p12
aS'../GameEngine/textures/basicMovingCreature/hss1.png'
p13
aS'../GameEngine/textures/basicMovingCreature/hs2s.png'
p14
aS'../GameEngine/textures/basicMovingCreature/hs2s1.png'
p15
aS'../GameEngine/textures/basicMovingCreature/hss.png'
p16
aS'../GameEngine/textures/basicMovingCreature/hss1.png'
p17
aS'../GameEngine/textures/basicMovingCreature/hs2s.png'
p18
aS'../GameEngine/textures/basicMovingCreature/hs2s1.png'
p19
aS'../GameEngine/textures/basicMovingCreature/hss.png'
p20
aS'../GameEngine/textures/basicMovingCreature/hss1.png'
p21
aS'../GameEngine/textures/basicMovingCreature/hbs.png'
p22
asS'tPid'
p23
I19
sS'textureSurfaces'
p24
(lp25
sS'soundsPaths'
p26
(lp27
S'../GameEngine/sounds/basicMovingCreature/step.wav'
p28
asS'sPid'
p29
I1
sS'sounds'
p30
(lp31
sb.